target datalayout = "e-m:e-p270:32:32-p271:32:32-p272:64:64-i64:64-i128:128-f80:128-n8:16:32:64-S128"
target triple = "x86_64-pc-linux-gnu"

%"struct.rocksdb::CompactionJobStats" = type { i64, i64, i8, i64, i64, i64, i64, i64, i64, i64, i64, i64, i8, i8, i8, i64, i64, i64, i64, i64, i64, i64, i64, i64, i64, i64, i64, i64, i64, i64, %"class.std::__cxx11::basic_string", %"class.std::__cxx11::basic_string", i64, i64 }
%"class.std::__cxx11::basic_string" = type { %"struct.std::__cxx11::basic_string<char>::_Alloc_hider", i64, %union.anon }
%"struct.std::__cxx11::basic_string<char>::_Alloc_hider" = type { ptr }
%union.anon = type { i64, [8 x i8] }

; Function Attrs: mustprogress nounwind uwtable
define void @_ZN7rocksdb18CompactionJobStats3AddERKS0_(ptr noundef nonnull align 8 dereferenceable(304) %0, ptr noundef nonnull align 8 dereferenceable(304) %1) #0 align 2 {
  %3 = alloca ptr, align 8
  %4 = alloca ptr, align 8
  store ptr %0, ptr %3, align 8, !tbaa !4
  store ptr %1, ptr %4, align 8, !tbaa !4
  %5 = load ptr, ptr %3, align 8
  %6 = load ptr, ptr %4, align 8, !tbaa !4
  %7 = getelementptr inbounds nuw %"struct.rocksdb::CompactionJobStats", ptr %6, i32 0, i32 0
  %8 = load i64, ptr %7, align 8, !tbaa !9
  %9 = getelementptr inbounds nuw %"struct.rocksdb::CompactionJobStats", ptr %5, i32 0, i32 0
  %10 = load i64, ptr %9, align 8, !tbaa !9
  %11 = add i64 %10, %8
  store i64 %11, ptr %9, align 8, !tbaa !9
  %12 = load ptr, ptr %4, align 8, !tbaa !4
  %13 = getelementptr inbounds nuw %"struct.rocksdb::CompactionJobStats", ptr %12, i32 0, i32 1
  %14 = load i64, ptr %13, align 8, !tbaa !16
  %15 = getelementptr inbounds nuw %"struct.rocksdb::CompactionJobStats", ptr %5, i32 0, i32 1
  %16 = load i64, ptr %15, align 8, !tbaa !16
  %17 = add i64 %16, %14
  store i64 %17, ptr %15, align 8, !tbaa !16
  %18 = load ptr, ptr %4, align 8, !tbaa !4
  %19 = getelementptr inbounds nuw %"struct.rocksdb::CompactionJobStats", ptr %18, i32 0, i32 2
  %20 = load i8, ptr %19, align 8, !tbaa !17, !range !49, !noundef !50
  %21 = trunc i8 %20 to i1
  %22 = zext i1 %21 to i32
  %23 = getelementptr inbounds nuw %"struct.rocksdb::CompactionJobStats", ptr %5, i32 0, i32 2
  %24 = load i8, ptr %23, align 8, !tbaa !17, !range !49, !noundef !50
  %25 = trunc i8 %24 to i1
  %26 = zext i1 %25 to i32
  %27 = and i32 %26, %22
  %28 = icmp ne i32 %27, 0
  %29 = zext i1 %28 to i8
  store i8 %29, ptr %23, align 8, !tbaa !17
  %30 = load ptr, ptr %4, align 8, !tbaa !4
  %31 = getelementptr inbounds nuw %"struct.rocksdb::CompactionJobStats", ptr %30, i32 0, i32 3
  %32 = load i64, ptr %31, align 8, !tbaa !18
  %33 = getelementptr inbounds nuw %"struct.rocksdb::CompactionJobStats", ptr %5, i32 0, i32 3
  %34 = load i64, ptr %33, align 8, !tbaa !18
  %35 = add i64 %34, %32
  store i64 %35, ptr %33, align 8, !tbaa !18
  %36 = load ptr, ptr %4, align 8, !tbaa !4
  %37 = getelementptr inbounds nuw %"struct.rocksdb::CompactionJobStats", ptr %36, i32 0, i32 4
  %38 = load i64, ptr %37, align 8, !tbaa !19
  %39 = getelementptr inbounds nuw %"struct.rocksdb::CompactionJobStats", ptr %5, i32 0, i32 4
  %40 = load i64, ptr %39, align 8, !tbaa !19
  %41 = add i64 %40, %38
  store i64 %41, ptr %39, align 8, !tbaa !19
  %42 = load ptr, ptr %4, align 8, !tbaa !4
  %43 = getelementptr inbounds nuw %"struct.rocksdb::CompactionJobStats", ptr %42, i32 0, i32 5
  %44 = load i64, ptr %43, align 8, !tbaa !20
  %45 = getelementptr inbounds nuw %"struct.rocksdb::CompactionJobStats", ptr %5, i32 0, i32 5
  %46 = load i64, ptr %45, align 8, !tbaa !20
  %47 = add i64 %46, %44
  store i64 %47, ptr %45, align 8, !tbaa !20
  %48 = load ptr, ptr %4, align 8, !tbaa !4
  %49 = getelementptr inbounds nuw %"struct.rocksdb::CompactionJobStats", ptr %48, i32 0, i32 6
  %50 = load i64, ptr %49, align 8, !tbaa !21
  %51 = getelementptr inbounds nuw %"struct.rocksdb::CompactionJobStats", ptr %5, i32 0, i32 6
  %52 = load i64, ptr %51, align 8, !tbaa !21
  %53 = add i64 %52, %50
  store i64 %53, ptr %51, align 8, !tbaa !21
  %54 = load ptr, ptr %4, align 8, !tbaa !4
  %55 = getelementptr inbounds nuw %"struct.rocksdb::CompactionJobStats", ptr %54, i32 0, i32 7
  %56 = load i64, ptr %55, align 8, !tbaa !22
  %57 = getelementptr inbounds nuw %"struct.rocksdb::CompactionJobStats", ptr %5, i32 0, i32 7
  %58 = load i64, ptr %57, align 8, !tbaa !22
  %59 = add i64 %58, %56
  store i64 %59, ptr %57, align 8, !tbaa !22
  %60 = load ptr, ptr %4, align 8, !tbaa !4
  %61 = getelementptr inbounds nuw %"struct.rocksdb::CompactionJobStats", ptr %60, i32 0, i32 8
  %62 = load i64, ptr %61, align 8, !tbaa !23
  %63 = getelementptr inbounds nuw %"struct.rocksdb::CompactionJobStats", ptr %5, i32 0, i32 8
  %64 = load i64, ptr %63, align 8, !tbaa !23
  %65 = add i64 %64, %62
  store i64 %65, ptr %63, align 8, !tbaa !23
  %66 = load ptr, ptr %4, align 8, !tbaa !4
  %67 = getelementptr inbounds nuw %"struct.rocksdb::CompactionJobStats", ptr %66, i32 0, i32 9
  %68 = load i64, ptr %67, align 8, !tbaa !24
  %69 = getelementptr inbounds nuw %"struct.rocksdb::CompactionJobStats", ptr %5, i32 0, i32 9
  %70 = load i64, ptr %69, align 8, !tbaa !24
  %71 = add i64 %70, %68
  store i64 %71, ptr %69, align 8, !tbaa !24
  %72 = load ptr, ptr %4, align 8, !tbaa !4
  %73 = getelementptr inbounds nuw %"struct.rocksdb::CompactionJobStats", ptr %72, i32 0, i32 10
  %74 = load i64, ptr %73, align 8, !tbaa !25
  %75 = getelementptr inbounds nuw %"struct.rocksdb::CompactionJobStats", ptr %5, i32 0, i32 10
  %76 = load i64, ptr %75, align 8, !tbaa !25
  %77 = add i64 %76, %74
  store i64 %77, ptr %75, align 8, !tbaa !25
  %78 = load ptr, ptr %4, align 8, !tbaa !4
  %79 = getelementptr inbounds nuw %"struct.rocksdb::CompactionJobStats", ptr %78, i32 0, i32 11
  %80 = load i64, ptr %79, align 8, !tbaa !26
  %81 = getelementptr inbounds nuw %"struct.rocksdb::CompactionJobStats", ptr %5, i32 0, i32 11
  %82 = load i64, ptr %81, align 8, !tbaa !26
  %83 = add i64 %82, %80
  store i64 %83, ptr %81, align 8, !tbaa !26
  %84 = load ptr, ptr %4, align 8, !tbaa !4
  %85 = getelementptr inbounds nuw %"struct.rocksdb::CompactionJobStats", ptr %84, i32 0, i32 15
  %86 = load i64, ptr %85, align 8, !tbaa !30
  %87 = getelementptr inbounds nuw %"struct.rocksdb::CompactionJobStats", ptr %5, i32 0, i32 15
  %88 = load i64, ptr %87, align 8, !tbaa !30
  %89 = add i64 %88, %86
  store i64 %89, ptr %87, align 8, !tbaa !30
  %90 = load ptr, ptr %4, align 8, !tbaa !4
  %91 = getelementptr inbounds nuw %"struct.rocksdb::CompactionJobStats", ptr %90, i32 0, i32 16
  %92 = load i64, ptr %91, align 8, !tbaa !31
  %93 = getelementptr inbounds nuw %"struct.rocksdb::CompactionJobStats", ptr %5, i32 0, i32 16
  %94 = load i64, ptr %93, align 8, !tbaa !31
  %95 = add i64 %94, %92
  store i64 %95, ptr %93, align 8, !tbaa !31
  %96 = load ptr, ptr %4, align 8, !tbaa !4
  %97 = getelementptr inbounds nuw %"struct.rocksdb::CompactionJobStats", ptr %96, i32 0, i32 17
  %98 = load i64, ptr %97, align 8, !tbaa !32
  %99 = getelementptr inbounds nuw %"struct.rocksdb::CompactionJobStats", ptr %5, i32 0, i32 17
  %100 = load i64, ptr %99, align 8, !tbaa !32
  %101 = add i64 %100, %98
  store i64 %101, ptr %99, align 8, !tbaa !32
  %102 = load ptr, ptr %4, align 8, !tbaa !4
  %103 = getelementptr inbounds nuw %"struct.rocksdb::CompactionJobStats", ptr %102, i32 0, i32 18
  %104 = load i64, ptr %103, align 8, !tbaa !33
  %105 = getelementptr inbounds nuw %"struct.rocksdb::CompactionJobStats", ptr %5, i32 0, i32 18
  %106 = load i64, ptr %105, align 8, !tbaa !33
  %107 = add i64 %106, %104
  store i64 %107, ptr %105, align 8, !tbaa !33
  %108 = load ptr, ptr %4, align 8, !tbaa !4
  %109 = getelementptr inbounds nuw %"struct.rocksdb::CompactionJobStats", ptr %108, i32 0, i32 19
  %110 = load i64, ptr %109, align 8, !tbaa !34
  %111 = getelementptr inbounds nuw %"struct.rocksdb::CompactionJobStats", ptr %5, i32 0, i32 19
  %112 = load i64, ptr %111, align 8, !tbaa !34
  %113 = add i64 %112, %110
  store i64 %113, ptr %111, align 8, !tbaa !34
  %114 = load ptr, ptr %4, align 8, !tbaa !4
  %115 = getelementptr inbounds nuw %"struct.rocksdb::CompactionJobStats", ptr %114, i32 0, i32 20
  %116 = load i64, ptr %115, align 8, !tbaa !35
  %117 = getelementptr inbounds nuw %"struct.rocksdb::CompactionJobStats", ptr %5, i32 0, i32 20
  %118 = load i64, ptr %117, align 8, !tbaa !35
  %119 = add i64 %118, %116
  store i64 %119, ptr %117, align 8, !tbaa !35
  %120 = load ptr, ptr %4, align 8, !tbaa !4
  %121 = getelementptr inbounds nuw %"struct.rocksdb::CompactionJobStats", ptr %120, i32 0, i32 21
  %122 = load i64, ptr %121, align 8, !tbaa !36
  %123 = getelementptr inbounds nuw %"struct.rocksdb::CompactionJobStats", ptr %5, i32 0, i32 21
  %124 = load i64, ptr %123, align 8, !tbaa !36
  %125 = add i64 %124, %122
  store i64 %125, ptr %123, align 8, !tbaa !36
  %126 = load ptr, ptr %4, align 8, !tbaa !4
  %127 = getelementptr inbounds nuw %"struct.rocksdb::CompactionJobStats", ptr %126, i32 0, i32 22
  %128 = load i64, ptr %127, align 8, !tbaa !37
  %129 = getelementptr inbounds nuw %"struct.rocksdb::CompactionJobStats", ptr %5, i32 0, i32 22
  %130 = load i64, ptr %129, align 8, !tbaa !37
  %131 = add i64 %130, %128
  store i64 %131, ptr %129, align 8, !tbaa !37
  %132 = load ptr, ptr %4, align 8, !tbaa !4
  %133 = getelementptr inbounds nuw %"struct.rocksdb::CompactionJobStats", ptr %132, i32 0, i32 23
  %134 = load i64, ptr %133, align 8, !tbaa !38
  %135 = getelementptr inbounds nuw %"struct.rocksdb::CompactionJobStats", ptr %5, i32 0, i32 23
  %136 = load i64, ptr %135, align 8, !tbaa !38
  %137 = add i64 %136, %134
  store i64 %137, ptr %135, align 8, !tbaa !38
  %138 = load ptr, ptr %4, align 8, !tbaa !4
  %139 = getelementptr inbounds nuw %"struct.rocksdb::CompactionJobStats", ptr %138, i32 0, i32 24
  %140 = load i64, ptr %139, align 8, !tbaa !39
  %141 = getelementptr inbounds nuw %"struct.rocksdb::CompactionJobStats", ptr %5, i32 0, i32 24
  %142 = load i64, ptr %141, align 8, !tbaa !39
  %143 = add i64 %142, %140
  store i64 %143, ptr %141, align 8, !tbaa !39
  %144 = load ptr, ptr %4, align 8, !tbaa !4
  %145 = getelementptr inbounds nuw %"struct.rocksdb::CompactionJobStats", ptr %144, i32 0, i32 25
  %146 = load i64, ptr %145, align 8, !tbaa !40
  %147 = getelementptr inbounds nuw %"struct.rocksdb::CompactionJobStats", ptr %5, i32 0, i32 25
  %148 = load i64, ptr %147, align 8, !tbaa !40
  %149 = add i64 %148, %146
  store i64 %149, ptr %147, align 8, !tbaa !40
  %150 = load ptr, ptr %4, align 8, !tbaa !4
  %151 = getelementptr inbounds nuw %"struct.rocksdb::CompactionJobStats", ptr %150, i32 0, i32 26
  %152 = load i64, ptr %151, align 8, !tbaa !41
  %153 = getelementptr inbounds nuw %"struct.rocksdb::CompactionJobStats", ptr %5, i32 0, i32 26
  %154 = load i64, ptr %153, align 8, !tbaa !41
  %155 = add i64 %154, %152
  store i64 %155, ptr %153, align 8, !tbaa !41
  %156 = load ptr, ptr %4, align 8, !tbaa !4
  %157 = getelementptr inbounds nuw %"struct.rocksdb::CompactionJobStats", ptr %156, i32 0, i32 27
  %158 = load i64, ptr %157, align 8, !tbaa !42
  %159 = getelementptr inbounds nuw %"struct.rocksdb::CompactionJobStats", ptr %5, i32 0, i32 27
  %160 = load i64, ptr %159, align 8, !tbaa !42
  %161 = add i64 %160, %158
  store i64 %161, ptr %159, align 8, !tbaa !42
  %162 = load ptr, ptr %4, align 8, !tbaa !4
  %163 = getelementptr inbounds nuw %"struct.rocksdb::CompactionJobStats", ptr %162, i32 0, i32 28
  %164 = load i64, ptr %163, align 8, !tbaa !43
  %165 = getelementptr inbounds nuw %"struct.rocksdb::CompactionJobStats", ptr %5, i32 0, i32 28
  %166 = load i64, ptr %165, align 8, !tbaa !43
  %167 = add i64 %166, %164
  store i64 %167, ptr %165, align 8, !tbaa !43
  %168 = load ptr, ptr %4, align 8, !tbaa !4
  %169 = getelementptr inbounds nuw %"struct.rocksdb::CompactionJobStats", ptr %168, i32 0, i32 29
  %170 = load i64, ptr %169, align 8, !tbaa !44
  %171 = getelementptr inbounds nuw %"struct.rocksdb::CompactionJobStats", ptr %5, i32 0, i32 29
  %172 = load i64, ptr %171, align 8, !tbaa !44
  %173 = add i64 %172, %170
  store i64 %173, ptr %171, align 8, !tbaa !44
  %174 = load ptr, ptr %4, align 8, !tbaa !4
  %175 = getelementptr inbounds nuw %"struct.rocksdb::CompactionJobStats", ptr %174, i32 0, i32 32
  %176 = load i64, ptr %175, align 8, !tbaa !45
  %177 = getelementptr inbounds nuw %"struct.rocksdb::CompactionJobStats", ptr %5, i32 0, i32 32
  %178 = load i64, ptr %177, align 8, !tbaa !45
  %179 = add i64 %178, %176
  store i64 %179, ptr %177, align 8, !tbaa !45
  %180 = load ptr, ptr %4, align 8, !tbaa !4
  %181 = getelementptr inbounds nuw %"struct.rocksdb::CompactionJobStats", ptr %180, i32 0, i32 33
  %182 = load i64, ptr %181, align 8, !tbaa !46
  %183 = getelementptr inbounds nuw %"struct.rocksdb::CompactionJobStats", ptr %5, i32 0, i32 33
  %184 = load i64, ptr %183, align 8, !tbaa !46
  %185 = add i64 %184, %182
  store i64 %185, ptr %183, align 8, !tbaa !46
  %186 = load ptr, ptr %4, align 8, !tbaa !4
  %187 = getelementptr inbounds nuw %"struct.rocksdb::CompactionJobStats", ptr %186, i32 0, i32 14
  %188 = load i8, ptr %187, align 2, !tbaa !29, !range !49, !noundef !50
  %189 = trunc i8 %188 to i1
  %190 = zext i1 %189 to i32
  %191 = getelementptr inbounds nuw %"struct.rocksdb::CompactionJobStats", ptr %5, i32 0, i32 14
  %192 = load i8, ptr %191, align 2, !tbaa !29, !range !49, !noundef !50
  %193 = trunc i8 %192 to i1
  %194 = zext i1 %193 to i32
  %195 = or i32 %194, %190
  %196 = icmp ne i32 %195, 0
  %197 = zext i1 %196 to i8
  store i8 %197, ptr %191, align 2, !tbaa !29
  ret void
}